target datalayout = "e-m:e-p270:32:32-p271:32:32-p272:64:64-i64:64-i128:128-f80:128-n8:16:32:64-S128"
target triple = "x86_64-pc-linux-gnu"

@.str.2 = private unnamed_addr constant [5 x i8] c"%s (\00", align 1
@.str.3 = private unnamed_addr constant [4 x i8] c"%ld\00", align 1
@.str.4 = private unnamed_addr constant [4 x i8] c" - \00", align 1
@.str.5 = private unnamed_addr constant [3 x i8] c")\0A\00", align 1

; Function Attrs: mustprogress nounwind uwtable
define void @_Z9cmp_int64P8_IO_FILEPKcll(ptr noundef %0, ptr noundef %1, i64 noundef %2, i64 noundef %3) #0 {
  %5 = alloca ptr, align 8
  %6 = alloca ptr, align 8
  %7 = alloca i64, align 8
  %8 = alloca i64, align 8
  store ptr %0, ptr %5, align 8, !tbaa !4
  store ptr %1, ptr %6, align 8, !tbaa !9
  store i64 %2, ptr %7, align 8, !tbaa !13
  store i64 %3, ptr %8, align 8, !tbaa !13
  %9 = load i64, ptr %7, align 8, !tbaa !13
  %10 = load i64, ptr %8, align 8, !tbaa !13
  %11 = icmp ne i64 %9, %10
  br i1 %11, label %12, label %26

12:                                               ; preds = %4
  %13 = load ptr, ptr %5, align 8, !tbaa !4
  %14 = load ptr, ptr %6, align 8, !tbaa !9
  %15 = call i32 (ptr, ptr, ...) @fprintf(ptr noundef %13, ptr noundef @.str.2, ptr noundef %14) #6
  %16 = load ptr, ptr %5, align 8, !tbaa !4
  %17 = load i64, ptr %7, align 8, !tbaa !13
  %18 = call i32 (ptr, ptr, ...) @fprintf(ptr noundef %16, ptr noundef @.str.3, i64 noundef %17) #6
  %19 = load ptr, ptr %5, align 8, !tbaa !4
  %20 = call i32 (ptr, ptr, ...) @fprintf(ptr noundef %19, ptr noundef @.str.4) #6
  %21 = load ptr, ptr %5, align 8, !tbaa !4
  %22 = load i64, ptr %8, align 8, !tbaa !13
  %23 = call i32 (ptr, ptr, ...) @fprintf(ptr noundef %21, ptr noundef @.str.3, i64 noundef %22) #6
  %24 = load ptr, ptr %5, align 8, !tbaa !4
  %25 = call i32 (ptr, ptr, ...) @fprintf(ptr noundef %24, ptr noundef @.str.5) #6
  br label %26

26:                                               ; preds = %12, %4
  ret void
}