; Function Attrs: mustprogress nofree nounwind uwtable
define void @_Z9cmp_int64P8_IO_FILEPKcll(ptr noundef captures(none) %0, ptr noundef %1, i64 noundef %2, i64 noundef %3) local_unnamed_addr #0 {
  %.not = icmp eq i64 %2, %3
  br i1 %.not, label %11, label %5

5:                                                ; preds = %4
  %6 = tail call i32 (ptr, ptr, ...) @fprintf(ptr noundef %0, ptr noundef nonnull @.str.2, ptr noundef %1) #6
  %7 = tail call i32 (ptr, ptr, ...) @fprintf(ptr noundef %0, ptr noundef nonnull @.str.3, i64 noundef %2) #6
  %8 = tail call i64 @fwrite(ptr nonnull @.str.4, i64 3, i64 1, ptr %0)
  %9 = tail call i32 (ptr, ptr, ...) @fprintf(ptr noundef %0, ptr noundef nonnull @.str.3, i64 noundef %3) #6
  %10 = tail call i64 @fwrite(ptr nonnull @.str.5, i64 2, i64 1, ptr %0)
  br label %11

11:                                               ; preds = %5, %4
  ret void
}